target datalayout = "e-m:e-p270:32:32-p271:32:32-p272:64:64-i64:64-i128:128-f80:128-n8:16:32:64-S128"
target triple = "x86_64-pc-linux-gnu"

%class.CodeInstaller = type <{ %class.Arena, ptr, i32, %class.CodeOffsets, i32, i32, i32, i32, i32, i32, i8, i8, [2 x i8], i32, [4 x i8], ptr, ptr, ptr, ptr, ptr, ptr, %class.ExceptionHandlerTable, %class.ImplicitExceptionTable, i8, [7 x i8] }>
%class.Arena = type { i8, i8, i64, ptr, ptr, ptr, ptr }
%class.CodeOffsets = type { [8 x i32] }
%class.ExceptionHandlerTable = type <{ ptr, i32, i32, %class.ReallocMark, [7 x i8] }>
%class.ReallocMark = type { i8 }
%class.ImplicitExceptionTable = type <{ i32, i32, ptr, %class.ReallocMark, [7 x i8] }>
%class.CodeSection = type { ptr, ptr, ptr, ptr, ptr, ptr, ptr, ptr, i8, i8, i32, i8, ptr }
%class.RelocationHolder = type { [40 x i8] }
%class.DataRelocation.base = type { %class.Relocation.base }
%class.Relocation.base = type <{ ptr, ptr, i32 }>
%class.Relocation = type <{ ptr, ptr, i32, [4 x i8] }>
%class.internal_word_Relocation = type <{ %class.DataRelocation.base, [4 x i8], ptr, i32, [4 x i8] }>

@JVMCITraceLevel = external global i64, align 8
@JVMCIEventLogLevel = external global i64, align 8
@.str.9 = private unnamed_addr constant [66 x i8] c"relocating at 0x%016lx/0x%016lx with destination at 0x%016lx (%d)\00", align 1
@_ZTV10Relocation = external unnamed_addr constant { [11 x ptr] }, align 8
@_ZTV23section_word_Relocation = external unnamed_addr constant { [11 x ptr] }, align 8
@_ZTV24internal_word_Relocation = external unnamed_addr constant { [11 x ptr] }, align 8

; Function Attrs: mustprogress nounwind uwtable
define linkonce_odr hidden void @_ZN10RelocationC2EN9relocInfo9relocTypeE(ptr noundef nonnull align 8 dereferenceable(20) %0, i32 noundef %1) unnamed_addr #1 comdat align 2 {
  %3 = alloca ptr, align 8
  %4 = alloca i32, align 4
  store ptr %0, ptr %3, align 8
  store i32 %1, ptr %4, align 4
  %5 = load ptr, ptr %3, align 8
  store ptr getelementptr inbounds inrange(-16, 72) ({ [11 x ptr] }, ptr @_ZTV10Relocation, i32 0, i32 0, i32 2), ptr %5, align 8
  %6 = getelementptr inbounds %class.Relocation, ptr %5, i32 0, i32 1
  store ptr null, ptr %6, align 8
  %7 = getelementptr inbounds %class.Relocation, ptr %5, i32 0, i32 2
  %8 = load i32, ptr %4, align 4
  store i32 %8, ptr %7, align 8
  ret void
}

; Function Attrs: mustprogress nounwind uwtable
define linkonce_odr hidden void @_ZN14DataRelocationC2EN9relocInfo9relocTypeE(ptr noundef nonnull align 8 dereferenceable(20) %0, i32 noundef %1) unnamed_addr #1 comdat align 2 {
  %3 = alloca ptr, align 8
  %4 = alloca i32, align 4
  store ptr %0, ptr %3, align 8
  store i32 %1, ptr %4, align 4
  %5 = load ptr, ptr %3, align 8
  %6 = load i32, ptr %4, align 4
  call void @_ZN10RelocationC2EN9relocInfo9relocTypeE(ptr noundef nonnull align 8 dereferenceable(20) %5, i32 noundef %6)
  store ptr getelementptr inbounds inrange(-16, 72) ({ [11 x ptr] }, ptr @_ZTV14DataRelocation, i32 0, i32 0, i32 2), ptr %5, align 8
  ret void
}

; Function Attrs: mustprogress nounwind uwtable
define linkonce_odr hidden void @_ZN24internal_word_RelocationC2EPhiN9relocInfo9relocTypeE(ptr noundef nonnull align 8 dereferenceable(36) %0, ptr noundef %1, i32 noundef %2, i32 noundef %3) unnamed_addr #1 comdat align 2 {
  %5 = alloca ptr, align 8
  %6 = alloca ptr, align 8
  %7 = alloca i32, align 4
  %8 = alloca i32, align 4
  store ptr %0, ptr %5, align 8
  store ptr %1, ptr %6, align 8
  store i32 %2, ptr %7, align 4
  store i32 %3, ptr %8, align 4
  %9 = load ptr, ptr %5, align 8
  %10 = load i32, ptr %8, align 4
  call void @_ZN14DataRelocationC2EN9relocInfo9relocTypeE(ptr noundef nonnull align 8 dereferenceable(20) %9, i32 noundef %10)
  store ptr getelementptr inbounds inrange(-16, 72) ({ [11 x ptr] }, ptr @_ZTV24internal_word_Relocation, i32 0, i32 0, i32 2), ptr %9, align 8
  %11 = getelementptr inbounds %class.internal_word_Relocation, ptr %9, i32 0, i32 2
  %12 = load ptr, ptr %6, align 8
  store ptr %12, ptr %11, align 8
  %13 = getelementptr inbounds %class.internal_word_Relocation, ptr %9, i32 0, i32 3
  %14 = load i32, ptr %7, align 4
  store i32 %14, ptr %13, align 8
  ret void
}

; Function Attrs: mustprogress nounwind uwtable
define linkonce_odr hidden void @_ZN23section_word_RelocationC2EPhi(ptr noundef nonnull align 8 dereferenceable(36) %0, ptr noundef %1, i32 noundef %2) unnamed_addr #1 comdat align 2 {
  %4 = alloca ptr, align 8
  %5 = alloca ptr, align 8
  %6 = alloca i32, align 4
  store ptr %0, ptr %4, align 8
  store ptr %1, ptr %5, align 8
  store i32 %2, ptr %6, align 4
  %7 = load ptr, ptr %4, align 8
  %8 = load ptr, ptr %5, align 8
  %9 = load i32, ptr %6, align 4
  call void @_ZN24internal_word_RelocationC2EPhiN9relocInfo9relocTypeE(ptr noundef nonnull align 8 dereferenceable(36) %7, ptr noundef %8, i32 noundef %9, i32 noundef 9)
  store ptr getelementptr inbounds inrange(-16, 72) ({ [11 x ptr] }, ptr @_ZTV23section_word_Relocation, i32 0, i32 0, i32 2), ptr %7, align 8
  ret void
}

; Function Attrs: mustprogress nounwind uwtable
define linkonce_odr hidden void @_ZN16RelocationHolder18emplace_relocationI23section_word_RelocationJPhiEEEvDpRKT0_(ptr noundef nonnull align 8 dereferenceable(40) %0, ptr noundef nonnull align 8 dereferenceable(8) %1, ptr noundef nonnull align 4 dereferenceable(4) %2) #1 comdat align 2 {
  %4 = alloca ptr, align 8
  %5 = alloca ptr, align 8
  %6 = alloca ptr, align 8
  %7 = alloca ptr, align 8
  store ptr %0, ptr %4, align 8
  store ptr %1, ptr %5, align 8
  store ptr %2, ptr %6, align 8
  %8 = load ptr, ptr %4, align 8
  %9 = getelementptr inbounds %class.RelocationHolder, ptr %8, i32 0, i32 0
  %10 = getelementptr inbounds [40 x i8], ptr %9, i64 0, i64 0
  %11 = load ptr, ptr %5, align 8
  %12 = load ptr, ptr %11, align 8
  %13 = load ptr, ptr %6, align 8
  %14 = load i32, ptr %13, align 4
  call void @_ZN23section_word_RelocationC2EPhi(ptr noundef nonnull align 8 dereferenceable(36) %10, ptr noundef %12, i32 noundef %14)
  store ptr %10, ptr %7, align 8
  ret void
}

; Function Attrs: mustprogress nounwind uwtable
define linkonce_odr hidden void @_ZN16RelocationHolderC2I23section_word_RelocationJPhiEEENS_9ConstructIT_EEDpRKT0_(ptr noundef nonnull align 8 dereferenceable(40) %0, ptr noundef nonnull align 8 dereferenceable(8) %1, ptr noundef nonnull align 4 dereferenceable(4) %2) unnamed_addr #1 comdat align 2 {
  %4 = alloca ptr, align 8
  %5 = alloca ptr, align 8
  %6 = alloca ptr, align 8
  store ptr %0, ptr %4, align 8
  store ptr %1, ptr %5, align 8
  store ptr %2, ptr %6, align 8
  %7 = load ptr, ptr %4, align 8
  %8 = load ptr, ptr %5, align 8
  %9 = load ptr, ptr %6, align 8
  call void @_ZN16RelocationHolder18emplace_relocationI23section_word_RelocationJPhiEEEvDpRKT0_(ptr noundef nonnull align 8 dereferenceable(40) %7, ptr noundef nonnull align 8 dereferenceable(8) %8, ptr noundef nonnull align 4 dereferenceable(4) %9)
  ret void
}

; Function Attrs: mustprogress nounwind uwtable
define linkonce_odr hidden void @_ZN16RelocationHolder9constructI23section_word_RelocationJPhiEEES_DpRKT0_(ptr dead_on_unwind noalias writable sret(%class.RelocationHolder) align 8 %0, ptr noundef nonnull align 8 dereferenceable(8) %1, ptr noundef nonnull align 4 dereferenceable(4) %2) #1 comdat align 2 {
  %4 = alloca ptr, align 8
  %5 = alloca ptr, align 8
  %6 = alloca ptr, align 8
  store ptr %0, ptr %4, align 8
  store ptr %1, ptr %5, align 8
  store ptr %2, ptr %6, align 8
  %7 = load ptr, ptr %5, align 8
  %8 = load ptr, ptr %6, align 8
  call void @_ZN16RelocationHolderC2I23section_word_RelocationJPhiEEENS_9ConstructIT_EEDpRKT0_(ptr noundef nonnull align 8 dereferenceable(40) %0, ptr noundef nonnull align 8 dereferenceable(8) %7, ptr noundef nonnull align 4 dereferenceable(4) %8)
  ret void
}

; Function Attrs: mustprogress nounwind uwtable
define linkonce_odr hidden noundef i64 @_Z3p2iPVKv(ptr noundef %0) #1 comdat {
  %2 = alloca ptr, align 8
  store ptr %0, ptr %2, align 8
  %3 = load ptr, ptr %2, align 8
  %4 = ptrtoint ptr %3 to i64
  ret i64 %4
}

; Function Attrs: mustprogress nounwind uwtable
define linkonce_odr hidden void @_ZN23section_word_Relocation4specEPhi(ptr dead_on_unwind noalias writable sret(%class.RelocationHolder) align 8 %0, ptr noundef %1, i32 noundef %2) #1 comdat align 2 {
  %4 = alloca ptr, align 8
  %5 = alloca ptr, align 8
  %6 = alloca i32, align 4
  store ptr %0, ptr %4, align 8
  store ptr %1, ptr %5, align 8
  store i32 %2, ptr %6, align 4
  call void @_ZN16RelocationHolder9constructI23section_word_RelocationJPhiEEES_DpRKT0_(ptr dead_on_unwind writable sret(%class.RelocationHolder) align 8 %0, ptr noundef nonnull align 8 dereferenceable(8) %5, ptr noundef nonnull align 4 dereferenceable(4) %6)
  ret void
}

; Function Attrs: mustprogress nounwind uwtable
define linkonce_odr hidden noundef ptr @_ZNK11CodeSection5startEv(ptr noundef nonnull align 8 dereferenceable(88) %0) #1 comdat align 2 {
  %2 = alloca ptr, align 8
  store ptr %0, ptr %2, align 8
  %3 = load ptr, ptr %2, align 8
  %4 = getelementptr inbounds %class.CodeSection, ptr %3, i32 0, i32 0
  %5 = load ptr, ptr %4, align 8
  ret ptr %5
}

; Function Attrs: mustprogress nounwind uwtable
define hidden void @_ZN13CodeInstaller29pd_patch_DataSectionReferenceEiiP8JVMCIEnv(ptr noundef nonnull align 8 dereferenceable(225) %0, i32 noundef %1, i32 noundef %2, ptr noundef %3) #1 align 2 {
  %5 = alloca ptr, align 8
  %6 = alloca i32, align 4
  %7 = alloca i32, align 4
  %8 = alloca ptr, align 8
  %9 = alloca ptr, align 8
  %10 = alloca ptr, align 8
  %11 = alloca ptr, align 8
  %12 = alloca ptr, align 8
  %13 = alloca i64, align 8
  %14 = alloca %class.RelocationHolder, align 8
  store ptr %0, ptr %5, align 8
  store i32 %1, ptr %6, align 4
  store i32 %2, ptr %7, align 4
  store ptr %3, ptr %8, align 8
  %15 = load ptr, ptr %5, align 8
  %16 = getelementptr inbounds %class.CodeInstaller, ptr %15, i32 0, i32 16
  %17 = load ptr, ptr %16, align 8
  %18 = call noundef ptr @_ZNK11CodeSection5startEv(ptr noundef nonnull align 8 dereferenceable(88) %17)
  %19 = load i32, ptr %6, align 4
  %20 = sext i32 %19 to i64
  %21 = getelementptr inbounds i8, ptr %18, i64 %20
  store ptr %21, ptr %9, align 8
  %22 = load ptr, ptr %9, align 8
  %23 = call noundef ptr @_ZN9Assembler14locate_operandEPhNS_12WhichOperandE(ptr noundef %22, i32 noundef 1)
  store ptr %23, ptr %10, align 8
  %24 = load ptr, ptr %9, align 8
  %25 = call noundef ptr @_ZN9Assembler23locate_next_instructionEPh(ptr noundef %24)
  store ptr %25, ptr %11, align 8
  %26 = getelementptr inbounds %class.CodeInstaller, ptr %15, i32 0, i32 17
  %27 = load ptr, ptr %26, align 8
  %28 = call noundef ptr @_ZNK11CodeSection5startEv(ptr noundef nonnull align 8 dereferenceable(88) %27)
  %29 = load i32, ptr %7, align 4
  %30 = sext i32 %29 to i64
  %31 = getelementptr inbounds i8, ptr %28, i64 %30
  store ptr %31, ptr %12, align 8
  %32 = load ptr, ptr %12, align 8
  %33 = load ptr, ptr %11, align 8
  %34 = ptrtoint ptr %32 to i64
  %35 = ptrtoint ptr %33 to i64
  %36 = sub i64 %34, %35
  store i64 %36, ptr %13, align 8
  %37 = load i64, ptr %13, align 8
  %38 = trunc i64 %37 to i32
  %39 = load ptr, ptr %10, align 8
  store i32 %38, ptr %39, align 4
  %40 = getelementptr inbounds %class.CodeInstaller, ptr %15, i32 0, i32 16
  %41 = load ptr, ptr %40, align 8
  %42 = load ptr, ptr %9, align 8
  %43 = load ptr, ptr %12, align 8
  call void @_ZN23section_word_Relocation4specEPhi(ptr dead_on_unwind writable sret(%class.RelocationHolder) align 8 %14, ptr noundef %43, i32 noundef 0)
  call void @_ZN11CodeSection8relocateEPhRK16RelocationHolderi(ptr noundef nonnull align 8 dereferenceable(88) %41, ptr noundef %42, ptr noundef nonnull align 8 dereferenceable(40) %14, i32 noundef 1)
  %44 = load i64, ptr @JVMCITraceLevel, align 8
  %45 = icmp slt i64 %44, 3
  br i1 %45, label %46, label %50

46:                                               ; preds = %4
  %47 = load i64, ptr @JVMCIEventLogLevel, align 8
  %48 = icmp slt i64 %47, 3
  br i1 %48, label %49, label %50

49:                                               ; preds = %46
  br label %58

50:                                               ; preds = %46, %4
  %51 = load ptr, ptr %9, align 8
  %52 = call noundef i64 @_Z3p2iPVKv(ptr noundef %51)
  %53 = load ptr, ptr %10, align 8
  %54 = call noundef i64 @_Z3p2iPVKv(ptr noundef %53)
  %55 = load ptr, ptr %12, align 8
  %56 = call noundef i64 @_Z3p2iPVKv(ptr noundef %55)
  %57 = load i32, ptr %7, align 4
  call void (ptr, ...) @_ZN5JVMCI6event3EPKcz(ptr noundef @.str.9, i64 noundef %52, i64 noundef %54, i64 noundef %56, i32 noundef %57)
  br label %58

58:                                               ; preds = %50, %49
  ret void
}