; Function Attrs: mustprogress nounwind uwtable
define hidden void @_ZN13CodeInstaller29pd_patch_DataSectionReferenceEiiP8JVMCIEnv(ptr nocapture noundef nonnull readonly align 8 dereferenceable(225) %0, i32 noundef %1, i32 noundef %2, ptr nocapture noundef readnone %3) local_unnamed_addr #0 align 2 {
  %5 = alloca %class.RelocationHolder, align 8
  %6 = getelementptr inbounds i8, ptr %0, i64 136
  %7 = load ptr, ptr %6, align 8
  %8 = load ptr, ptr %7, align 8
  %9 = sext i32 %1 to i64
  %10 = getelementptr inbounds i8, ptr %8, i64 %9
  %11 = tail call noundef ptr @_ZN9Assembler14locate_operandEPhNS_12WhichOperandE(ptr noundef %10, i32 noundef 1) #5
  %12 = tail call noundef ptr @_ZN9Assembler23locate_next_instructionEPh(ptr noundef %10) #5
  %13 = getelementptr inbounds i8, ptr %0, i64 144
  %14 = load ptr, ptr %13, align 8
  %15 = load ptr, ptr %14, align 8
  %16 = sext i32 %2 to i64
  %17 = getelementptr inbounds i8, ptr %15, i64 %16
  %18 = ptrtoint ptr %17 to i64
  %19 = ptrtoint ptr %12 to i64
  %20 = sub i64 %18, %19
  %21 = trunc i64 %20 to i32
  store i32 %21, ptr %11, align 4
  %22 = load ptr, ptr %6, align 8
  %23 = getelementptr inbounds i8, ptr %5, i64 8
  store ptr null, ptr %23, align 8, !alias.scope !16
  %24 = getelementptr inbounds i8, ptr %5, i64 16
  store i32 9, ptr %24, align 8, !alias.scope !16
  %25 = getelementptr inbounds i8, ptr %5, i64 24
  store ptr %17, ptr %25, align 8, !alias.scope !16
  %26 = getelementptr inbounds i8, ptr %5, i64 32
  store i32 0, ptr %26, align 8, !alias.scope !16
  store ptr getelementptr inbounds inrange(-16, 72) (i8, ptr @_ZTV23section_word_Relocation, i64 16), ptr %5, align 8, !alias.scope !16
  call void @_ZN11CodeSection8relocateEPhRK16RelocationHolderi(ptr noundef nonnull align 8 dereferenceable(88) %22, ptr noundef %10, ptr noundef nonnull align 8 dereferenceable(40) %5, i32 noundef 1) #5
  %27 = load i64, ptr @JVMCITraceLevel, align 8
  %28 = icmp slt i64 %27, 3
  %29 = load i64, ptr @JVMCIEventLogLevel, align 8
  %30 = icmp slt i64 %29, 3
  %or.cond = select i1 %28, i1 %30, i1 false
  br i1 %or.cond, label %34, label %31

31:                                               ; preds = %4
  %32 = ptrtoint ptr %10 to i64
  %33 = ptrtoint ptr %11 to i64
  call void (ptr, ...) @_ZN5JVMCI6event3EPKcz(ptr noundef nonnull @.str.9, i64 noundef %32, i64 noundef %33, i64 noundef %18, i32 noundef %2) #5
  br label %34

34:                                               ; preds = %4, %31
  ret void
}